CCS PCM C Compiler, Version 5.007, 61971               28-May-20 16:12

               Filename:   C:\Users\asus\Desktop\1030516696\DigitalClock.lst

               ROM used:   422 words (5%)
                           Largest free fragment is 2048
               RAM used:   26 (7%) at main() level
                           31 (8%) worst case
               Stack used: 1 locations (0 in main + 1 for interrupts)
               Stack size: 8

*
0000:  MOVLW  00
0001:  MOVWF  0A
0002:  GOTO   0DD
0003:  NOP
0004:  MOVWF  7F
0005:  SWAPF  03,W
0006:  CLRF   03
0007:  MOVWF  21
0008:  MOVF   0A,W
0009:  MOVWF  20
000A:  CLRF   0A
000B:  MOVF   04,W
000C:  MOVWF  22
000D:  MOVF   77,W
000E:  MOVWF  23
000F:  MOVF   78,W
0010:  MOVWF  24
0011:  MOVF   79,W
0012:  MOVWF  25
0013:  MOVF   7A,W
0014:  MOVWF  26
0015:  BCF    03.7
0016:  BCF    03.5
0017:  MOVLW  8C
0018:  MOVWF  04
0019:  BTFSS  00.0
001A:  GOTO   01D
001B:  BTFSC  0C.0
001C:  GOTO   02E
001D:  MOVF   22,W
001E:  MOVWF  04
001F:  MOVF   23,W
0020:  MOVWF  77
0021:  MOVF   24,W
0022:  MOVWF  78
0023:  MOVF   25,W
0024:  MOVWF  79
0025:  MOVF   26,W
0026:  MOVWF  7A
0027:  MOVF   20,W
0028:  MOVWF  0A
0029:  SWAPF  21,W
002A:  MOVWF  03
002B:  SWAPF  7F,F
002C:  SWAPF  7F,W
002D:  RETFIE
002E:  BCF    0A.3
002F:  BCF    0A.4
0030:  GOTO   046
.................... #include <digitalClock.h> 
.................... #include <16F877.h> 
.................... //////// Standard Header file for the PIC16F877 device //////////////// 
.................... #device PIC16F877 
0031:  MOVF   38,W
0032:  CLRF   78
0033:  SUBWF  37,W
0034:  BTFSC  03.0
0035:  GOTO   039
0036:  MOVF   37,W
0037:  MOVWF  77
0038:  GOTO   045
0039:  CLRF   77
003A:  MOVLW  08
003B:  MOVWF  39
003C:  RLF    37,F
003D:  RLF    77,F
003E:  MOVF   38,W
003F:  SUBWF  77,W
0040:  BTFSC  03.0
0041:  MOVWF  77
0042:  RLF    78,F
0043:  DECFSZ 39,F
0044:  GOTO   03C
0045:  RETURN
....................  
.................... #list 
....................  
.................... #device ADC=16 
....................  
.................... #FUSES NOWDT                 	//No Watch Dog Timer 
.................... #FUSES NOBROWNOUT            	//No brownout reset 
.................... #FUSES NOLVP                 	//No low voltage prgming, B3(PIC16) or B5(PIC18) used for I/O 
....................  
.................... #use delay(crystal=20000000) 
*
00C9:  MOVLW  35
00CA:  MOVWF  04
00CB:  BCF    03.7
00CC:  MOVF   00,W
00CD:  BTFSC  03.2
00CE:  GOTO   0DC
00CF:  MOVLW  06
00D0:  MOVWF  78
00D1:  CLRF   77
00D2:  DECFSZ 77,F
00D3:  GOTO   0D2
00D4:  DECFSZ 78,F
00D5:  GOTO   0D1
00D6:  MOVLW  7B
00D7:  MOVWF  77
00D8:  DECFSZ 77,F
00D9:  GOTO   0D8
00DA:  DECFSZ 00,F
00DB:  GOTO   0CF
00DC:  RETURN
....................  
....................  
....................  
.................... #define buttonStop input(PIN_A4) 
.................... #define buttonDigit input(PIN_A5) 
.................... #define buttonIncrement input(PIN_E0) 
.................... #define buttonDecrement input(PIN_E1) 
....................  
.................... int milisecondcounter = 0;  
.................... int secondcounter = 0; 
.................... int minutecounter = 0; 
.................... int hourcounter = 0; 
.................... int secondcounter1 = 0; int secondcounter2 = 0;   //saniye onlar ve birler basamaðýndan oluþuyor. 
.................... int minutecounter1 = 0; int minutecounter2 = 0;  //dakika birler ve onlar basamaðýndan oluþuyor. 
.................... int hourcounter1 = 0;   int hourcounter2=0;     //saat birler ve onlar basamaðýndan oluþuyor. 
.................... int i = 0; 
.................... int stop = 0; 
....................  
.................... //Timer Counter 
.................... #int_timer1 
.................... void timer1(){ 
....................  output_a(milisecondcounter); 
*
0046:  BSF    03.5
0047:  CLRF   05
0048:  BCF    03.5
0049:  MOVF   27,W
004A:  MOVWF  05
....................  secondcounter1 = secondcounter%10; 
004B:  MOVF   28,W
004C:  MOVWF  37
004D:  MOVLW  0A
004E:  MOVWF  38
004F:  CALL   031
0050:  MOVF   77,W
0051:  MOVWF  2B
....................  secondcounter2 = (secondcounter/10)%10; 
0052:  MOVF   28,W
0053:  MOVWF  37
0054:  MOVLW  0A
0055:  MOVWF  38
0056:  CALL   031
0057:  MOVF   78,W
0058:  MOVWF  37
0059:  MOVLW  0A
005A:  MOVWF  38
005B:  CALL   031
005C:  MOVF   77,W
005D:  MOVWF  2C
....................  output_b(secondcounter1 | secondcounter2<<4); 
005E:  SWAPF  2C,W
005F:  MOVWF  77
0060:  MOVLW  F0
0061:  ANDWF  77,F
0062:  MOVF   77,W
0063:  IORWF  2B,W
0064:  MOVWF  36
0065:  BSF    03.5
0066:  CLRF   06
0067:  BCF    03.5
0068:  MOVF   36,W
0069:  MOVWF  06
....................   
....................  minutecounter1 = minutecounter%10; 
006A:  MOVF   29,W
006B:  MOVWF  37
006C:  MOVLW  0A
006D:  MOVWF  38
006E:  CALL   031
006F:  MOVF   77,W
0070:  MOVWF  2D
....................  minutecounter2 = (minutecounter/10)%10; 
0071:  MOVF   29,W
0072:  MOVWF  37
0073:  MOVLW  0A
0074:  MOVWF  38
0075:  CALL   031
0076:  MOVF   78,W
0077:  MOVWF  37
0078:  MOVLW  0A
0079:  MOVWF  38
007A:  CALL   031
007B:  MOVF   77,W
007C:  MOVWF  2E
....................  output_c(minutecounter1 | minutecounter2 <<4); 
007D:  SWAPF  2E,W
007E:  MOVWF  77
007F:  MOVLW  F0
0080:  ANDWF  77,F
0081:  MOVF   77,W
0082:  IORWF  2D,W
0083:  MOVWF  36
0084:  MOVLW  00
0085:  MOVWF  33
0086:  BSF    03.5
0087:  CLRF   07
0088:  BCF    03.5
0089:  MOVF   36,W
008A:  MOVWF  07
....................  
....................  hourcounter1 = hourcounter % 10 ; 
008B:  MOVF   2A,W
008C:  MOVWF  37
008D:  MOVLW  0A
008E:  MOVWF  38
008F:  CALL   031
0090:  MOVF   77,W
0091:  MOVWF  2F
....................  hourcounter2 = (hourcounter/10)%10; 
0092:  MOVF   2A,W
0093:  MOVWF  37
0094:  MOVLW  0A
0095:  MOVWF  38
0096:  CALL   031
0097:  MOVF   78,W
0098:  MOVWF  37
0099:  MOVLW  0A
009A:  MOVWF  38
009B:  CALL   031
009C:  MOVF   77,W
009D:  MOVWF  30
....................  output_d(hourcounter1 | hourcounter2 <<4); 
009E:  SWAPF  30,W
009F:  MOVWF  77
00A0:  MOVLW  F0
00A1:  ANDWF  77,F
00A2:  MOVF   77,W
00A3:  IORWF  2F,W
00A4:  MOVWF  36
00A5:  BSF    03.5
00A6:  CLRF   08
00A7:  BCF    03.5
00A8:  MOVF   36,W
00A9:  MOVWF  08
....................   
....................  if(buttonStop == 0){ 
00AA:  BSF    03.5
00AB:  BSF    05.4
00AC:  BCF    03.5
00AD:  BTFSS  05.4
....................    milisecondcounter++; 
00AE:  INCF   27,F
....................  } 
....................  if(milisecondcounter == 10){ 
00AF:  MOVF   27,W
00B0:  SUBLW  0A
00B1:  BTFSS  03.2
00B2:  GOTO   0C5
....................    milisecondcounter = 0; 
00B3:  CLRF   27
....................    secondcounter++; 
00B4:  INCF   28,F
....................     
....................    if(secondcounter == 60){ 
00B5:  MOVF   28,W
00B6:  SUBLW  3C
00B7:  BTFSS  03.2
00B8:  GOTO   0C5
....................       secondcounter = 0; 
00B9:  CLRF   28
....................       minutecounter++; 
00BA:  INCF   29,F
....................        
....................       if(minutecounter == 60){ 
00BB:  MOVF   29,W
00BC:  SUBLW  3C
00BD:  BTFSS  03.2
00BE:  GOTO   0C5
....................          minutecounter = 0; 
00BF:  CLRF   29
....................          hourcounter++; 
00C0:  INCF   2A,F
....................           
....................          if(hourcounter == 24){ 
00C1:  MOVF   2A,W
00C2:  SUBLW  18
00C3:  BTFSC  03.2
....................           hourcounter = 0; 
00C4:  CLRF   2A
....................           } 
....................       } 
....................     } 
....................   } 
....................  
00C5:  BCF    0C.0
00C6:  BCF    0A.3
00C7:  BCF    0A.4
00C8:  GOTO   01D
.................... } 
....................  
.................... void main() 
*
00DD:  CLRF   27
00DE:  CLRF   28
00DF:  CLRF   29
00E0:  CLRF   2A
00E1:  CLRF   2B
00E2:  CLRF   2C
00E3:  CLRF   2D
00E4:  CLRF   2E
00E5:  CLRF   2F
00E6:  CLRF   30
00E7:  CLRF   31
00E8:  CLRF   32
00E9:  MOVLW  FF
00EA:  MOVWF  33
00EB:  BSF    03.5
00EC:  BSF    1F.0
00ED:  BSF    1F.1
00EE:  BSF    1F.2
00EF:  BCF    1F.3
00F0:  BCF    03.7
00F1:  MOVLW  1F
00F2:  ANDWF  03,F
.................... {   
....................    setup_timer_1(T1_INTERNAL | T1_DIV_BY_8); 
00F3:  MOVLW  B5
00F4:  BCF    03.5
00F5:  MOVWF  10
....................    enable_interrupts(int_timer1); 
00F6:  BSF    03.5
00F7:  BSF    0C.0
....................    enable_interrupts(global); 
00F8:  MOVLW  C0
00F9:  BCF    03.5
00FA:  IORWF  0B,F
....................   
....................    while(TRUE) 
....................    { 
....................       if(buttonStop==1) 
00FB:  BSF    03.5
00FC:  BSF    05.4
00FD:  BCF    03.5
00FE:  BTFSS  05.4
00FF:  GOTO   103
....................       { 
....................          stop = 1; 
0100:  MOVLW  01
0101:  MOVWF  32
....................       } 
0102:  GOTO   104
....................       else 
....................       { 
....................          stop = 0; 
0103:  CLRF   32
....................       } 
....................      
....................       if(buttonStop == 1) 
0104:  BSF    03.5
0105:  BSF    05.4
0106:  BCF    03.5
0107:  BTFSS  05.4
0108:  GOTO   1A4
....................       { 
....................          while(TRUE) 
....................             { 
....................                if(buttonDigit == 1) 
0109:  BSF    03.5
010A:  BSF    05.5
010B:  BCF    03.5
010C:  BTFSS  05.5
010D:  GOTO   115
....................                   { 
....................                      i++; 
010E:  INCF   31,F
....................                      if(i==4) 
010F:  MOVF   31,W
0110:  SUBLW  04
0111:  BTFSS  03.2
0112:  GOTO   115
....................                         { 
....................                            i=1; 
0113:  MOVLW  01
0114:  MOVWF  31
....................                         } 
....................                   } 
....................                   switch(i) 
0115:  MOVF   31,W
0116:  XORLW  01
0117:  BTFSC  03.2
0118:  GOTO   120
0119:  XORLW  03
011A:  BTFSC  03.2
011B:  GOTO   159
011C:  XORLW  01
011D:  BTFSC  03.2
011E:  GOTO   185
011F:  GOTO   1A3
....................                   { 
....................                      case 1: 
....................                      if(buttonIncrement == 1) 
0120:  BSF    03.5
0121:  BSF    09.0
0122:  BCF    03.5
0123:  BTFSS  09.0
0124:  GOTO   137
....................                      { 
....................                         secondcounter++; 
0125:  INCF   28,F
....................                         if(secondcounter == 60) 
0126:  MOVF   28,W
0127:  SUBLW  3C
0128:  BTFSS  03.2
0129:  GOTO   136
....................                         { 
....................                            secondcounter = 0; 
012A:  CLRF   28
....................                            minutecounter++; 
012B:  INCF   29,F
....................                            if(minutecounter ==60) 
012C:  MOVF   29,W
012D:  SUBLW  3C
012E:  BTFSS  03.2
012F:  GOTO   136
....................                            { 
....................                               minutecounter = 0; 
0130:  CLRF   29
....................                               hourcounter++; 
0131:  INCF   2A,F
....................                               if(hourcounter == 24) 
0132:  MOVF   2A,W
0133:  SUBLW  18
0134:  BTFSC  03.2
....................                               { 
....................                                  hourcounter = 0; 
0135:  CLRF   2A
....................                               } 
....................                            } 
....................                         } 
....................                      } 
0136:  GOTO   151
....................                       
....................                      else if(buttonDecrement ==1) 
0137:  BSF    03.5
0138:  BSF    09.1
0139:  BCF    03.5
013A:  BTFSS  09.1
013B:  GOTO   151
....................                      { 
....................                         secondcounter--; 
013C:  DECF   28,F
....................                         if(secondcounter == -1) 
013D:  MOVF   28,W
013E:  SUBLW  FF
013F:  BTFSS  03.2
0140:  GOTO   151
....................                            { 
....................                               secondcounter = 59; 
0141:  MOVLW  3B
0142:  MOVWF  28
....................                               minutecounter--; 
0143:  DECF   29,F
....................                               if(minutecounter == -1) 
0144:  MOVF   29,W
0145:  SUBLW  FF
0146:  BTFSS  03.2
0147:  GOTO   151
....................                                  { 
....................                                     minutecounter = 59; 
0148:  MOVLW  3B
0149:  MOVWF  29
....................                                     hourcounter--; 
014A:  DECF   2A,F
....................                                     if(hourcounter ==-1) 
014B:  MOVF   2A,W
014C:  SUBLW  FF
014D:  BTFSS  03.2
014E:  GOTO   151
....................                                     { 
....................                                        hourcounter = 23; 
014F:  MOVLW  17
0150:  MOVWF  2A
....................                                     } 
....................                                  } 
....................                            } 
....................                      } 
....................                      delay_ms(500); 
0151:  MOVLW  02
0152:  MOVWF  34
0153:  MOVLW  FA
0154:  MOVWF  35
0155:  CALL   0C9
0156:  DECFSZ 34,F
0157:  GOTO   153
....................                      break; 
0158:  GOTO   1A3
....................                       
....................                      case 2: 
....................                      if(buttonIncrement == 1) 
0159:  BSF    03.5
015A:  BSF    09.0
015B:  BCF    03.5
015C:  BTFSS  09.0
015D:  GOTO   16A
....................                      { 
....................                         minutecounter++; 
015E:  INCF   29,F
....................                         if(minutecounter == 60) 
015F:  MOVF   29,W
0160:  SUBLW  3C
0161:  BTFSS  03.2
0162:  GOTO   169
....................                         { 
....................                            minutecounter = 0; 
0163:  CLRF   29
....................                            hourcounter++; 
0164:  INCF   2A,F
....................                            if(hourcounter == 24) 
0165:  MOVF   2A,W
0166:  SUBLW  18
0167:  BTFSC  03.2
....................                            { 
....................                               hourcounter =0; 
0168:  CLRF   2A
....................                            } 
....................                         } 
....................                      } 
0169:  GOTO   17D
....................                      else if(buttonDecrement ==1) 
016A:  BSF    03.5
016B:  BSF    09.1
016C:  BCF    03.5
016D:  BTFSS  09.1
016E:  GOTO   17D
....................                      { 
....................                         minutecounter--; 
016F:  DECF   29,F
....................                         if(minutecounter == -1) 
0170:  MOVF   29,W
0171:  SUBLW  FF
0172:  BTFSS  03.2
0173:  GOTO   17D
....................                         { 
....................                            minutecounter = 59; 
0174:  MOVLW  3B
0175:  MOVWF  29
....................                            hourcounter--; 
0176:  DECF   2A,F
....................                            if(hourcounter ==-1) 
0177:  MOVF   2A,W
0178:  SUBLW  FF
0179:  BTFSS  03.2
017A:  GOTO   17D
....................                               { 
....................                                  hourcounter = 23; 
017B:  MOVLW  17
017C:  MOVWF  2A
....................                               } 
....................                         } 
....................                      } 
....................                      delay_ms(500); 
017D:  MOVLW  02
017E:  MOVWF  34
017F:  MOVLW  FA
0180:  MOVWF  35
0181:  CALL   0C9
0182:  DECFSZ 34,F
0183:  GOTO   17F
....................                      break; 
0184:  GOTO   1A3
....................                       
....................                      case 3: 
....................                         if(buttonIncrement ==1) 
0185:  BSF    03.5
0186:  BSF    09.0
0187:  BCF    03.5
0188:  BTFSS  09.0
0189:  GOTO   190
....................                         { 
....................                            hourcounter++; 
018A:  INCF   2A,F
....................                            if(hourcounter==24) 
018B:  MOVF   2A,W
018C:  SUBLW  18
018D:  BTFSC  03.2
....................                               { 
....................                               hourcounter = 0; 
018E:  CLRF   2A
....................                               } 
....................                         } 
018F:  GOTO   19C
....................                         else if(buttonDecrement ==1) 
0190:  BSF    03.5
0191:  BSF    09.1
0192:  BCF    03.5
0193:  BTFSS  09.1
0194:  GOTO   19C
....................                         { 
....................                            hourcounter--; 
0195:  DECF   2A,F
....................                            if(hourcounter == -1) 
0196:  MOVF   2A,W
0197:  SUBLW  FF
0198:  BTFSS  03.2
0199:  GOTO   19C
....................                            { 
....................                               hourcounter = 23; 
019A:  MOVLW  17
019B:  MOVWF  2A
....................                            } 
....................                         } 
....................                         delay_ms(500); 
019C:  MOVLW  02
019D:  MOVWF  34
019E:  MOVLW  FA
019F:  MOVWF  35
01A0:  CALL   0C9
01A1:  DECFSZ 34,F
01A2:  GOTO   19E
....................                         break; 
....................                   } 
01A3:  GOTO   109
....................             } 
....................       } 
01A4:  GOTO   0FB
....................    } 
....................    } 
....................  
01A5:  SLEEP
....................                          
....................                     
....................   

Configuration Fuses:
   Word  1: 3F32   HS NOWDT PUT NOBROWNOUT NOLVP NOCPD NOWRT NODEBUG NOPROTECT
